target datalayout = "e-m:e-p270:32:32-p271:32:32-p272:64:64-i64:64-i128:128-f80:128-n8:16:32:64-S128"
target triple = "x86_64-pc-linux-gnu"

@exit_code = dso_local global i32 0, align 4
@quiet_flag = dso_local global i32 0, align 4
@stderr = external global ptr, align 8
@.str.52 = private unnamed_addr constant [35 x i8] c"too many arguments for keyword:%s\0A\00", align 1
@.str.60 = private unnamed_addr constant [34 x i8] c"too few arguments for keyword:%s\0A\00", align 1
@__const._setdebug.levels = private unnamed_addr constant [11 x ptr] [ptr @.str.12, ptr @.str.168, ptr @.str.169, ptr @.str.170, ptr @.str.16, ptr @.str.171, ptr @.str.172, ptr @.str.173, ptr @.str.174, ptr @.str.175, ptr null], align 16
@.str.176 = private unnamed_addr constant [25 x i8] c"invalid debug level: %s\0A\00", align 1
@.str.177 = private unnamed_addr constant [28 x i8] c"slurm_set_debug_level error\00", align 1
@.str.178 = private unnamed_addr constant [7 x i8] c"Nodes=\00", align 1
@.str.179 = private unnamed_addr constant [20 x i8] c"Invalid option: %s\0A\00", align 1
@.str.180 = private unnamed_addr constant [52 x i8] c"Failed to change debug level on one or more nodes.\0A\00", align 1

; Function Attrs: nounwind uwtable
define internal void @_setdebug(i32 noundef %0, ptr noundef %1) #0 {
  %3 = alloca i32, align 4
  %4 = alloca ptr, align 8
  %5 = alloca i32, align 4
  %6 = alloca i32, align 4
  %7 = alloca ptr, align 8
  %8 = alloca [11 x ptr], align 16
  %9 = alloca i32, align 4
  %10 = alloca ptr, align 8
  store i32 %0, ptr %3, align 4
  store ptr %1, ptr %4, align 8
  call void @llvm.lifetime.start.p0(i64 4, ptr %5) #12
  store i32 -1, ptr %5, align 4
  call void @llvm.lifetime.start.p0(i64 4, ptr %6) #12
  store i32 0, ptr %6, align 4
  call void @llvm.lifetime.start.p0(i64 8, ptr %7) #12
  call void @llvm.lifetime.start.p0(i64 88, ptr %8) #12
  call void @llvm.memcpy.p0.p0.i64(ptr align 16 %8, ptr align 16 @__const._setdebug.levels, i64 88, i1 false)
  %11 = load i32, ptr %3, align 4
  %12 = icmp sgt i32 %11, 3
  br i1 %12, label %13, label %23

13:                                               ; preds = %2
  store i32 1, ptr @exit_code, align 4
  %14 = load i32, ptr @quiet_flag, align 4
  %15 = icmp ne i32 %14, 1
  br i1 %15, label %16, label %22

16:                                               ; preds = %13
  %17 = load ptr, ptr @stderr, align 8
  %18 = load ptr, ptr %4, align 8
  %19 = getelementptr inbounds ptr, ptr %18, i64 0
  %20 = load ptr, ptr %19, align 8
  %21 = call i32 (ptr, ptr, ...) @fprintf(ptr noundef %17, ptr noundef @.str.52, ptr noundef %20) #12
  br label %22

22:                                               ; preds = %16, %13
  store i32 1, ptr %9, align 4
  br label %145

23:                                               ; preds = %2
  %24 = load i32, ptr %3, align 4
  %25 = icmp slt i32 %24, 2
  br i1 %25, label %26, label %36

26:                                               ; preds = %23
  store i32 1, ptr @exit_code, align 4
  %27 = load i32, ptr @quiet_flag, align 4
  %28 = icmp ne i32 %27, 1
  br i1 %28, label %29, label %35

29:                                               ; preds = %26
  %30 = load ptr, ptr @stderr, align 8
  %31 = load ptr, ptr %4, align 8
  %32 = getelementptr inbounds ptr, ptr %31, i64 0
  %33 = load ptr, ptr %32, align 8
  %34 = call i32 (ptr, ptr, ...) @fprintf(ptr noundef %30, ptr noundef @.str.60, ptr noundef %33) #12
  br label %35

35:                                               ; preds = %29, %26
  store i32 1, ptr %9, align 4
  br label %145

36:                                               ; preds = %23
  br label %37

37:                                               ; preds = %36
  br label %38

38:                                               ; preds = %56, %37
  %39 = load i32, ptr %6, align 4
  %40 = sext i32 %39 to i64
  %41 = getelementptr inbounds [11 x ptr], ptr %8, i64 0, i64 %40
  %42 = load ptr, ptr %41, align 8
  %43 = icmp ne ptr %42, null
  br i1 %43, label %44, label %59

44:                                               ; preds = %38
  %45 = load ptr, ptr %4, align 8
  %46 = getelementptr inbounds ptr, ptr %45, i64 1
  %47 = load ptr, ptr %46, align 8
  %48 = load i32, ptr %6, align 4
  %49 = sext i32 %48 to i64
  %50 = getelementptr inbounds [11 x ptr], ptr %8, i64 0, i64 %49
  %51 = load ptr, ptr %50, align 8
  %52 = call i32 @xstrcasecmp(ptr noundef %47, ptr noundef %51)
  %53 = icmp ne i32 %52, 0
  br i1 %53, label %56, label %54

54:                                               ; preds = %44
  %55 = load i32, ptr %6, align 4
  store i32 %55, ptr %5, align 4
  br label %59

56:                                               ; preds = %44
  %57 = load i32, ptr %6, align 4
  %58 = add nsw i32 %57, 1
  store i32 %58, ptr %6, align 4
  br label %38, !llvm.loop !30

59:                                               ; preds = %54, %38
  %60 = load i32, ptr %5, align 4
  %61 = icmp eq i32 %60, -1
  br i1 %61, label %62, label %86

62:                                               ; preds = %59
  %63 = load ptr, ptr %4, align 8
  %64 = getelementptr inbounds ptr, ptr %63, i64 1
  %65 = load ptr, ptr %64, align 8
  %66 = call i64 @strtoul(ptr noundef %65, ptr noundef %7, i32 noundef 10) #12
  %67 = trunc i64 %66 to i32
  store i32 %67, ptr %5, align 4
  %68 = load ptr, ptr %7, align 8
  %69 = load i8, ptr %68, align 1
  %70 = sext i8 %69 to i32
  %71 = icmp ne i32 %70, 0
  br i1 %71, label %75, label %72

72:                                               ; preds = %62
  %73 = load i32, ptr %5, align 4
  %74 = icmp sgt i32 %73, 9
  br i1 %74, label %75, label %85

75:                                               ; preds = %72, %62
  store i32 1, ptr @exit_code, align 4
  %76 = load i32, ptr @quiet_flag, align 4
  %77 = icmp ne i32 %76, 1
  br i1 %77, label %78, label %84

78:                                               ; preds = %75
  %79 = load ptr, ptr @stderr, align 8
  %80 = load ptr, ptr %4, align 8
  %81 = getelementptr inbounds ptr, ptr %80, i64 1
  %82 = load ptr, ptr %81, align 8
  %83 = call i32 (ptr, ptr, ...) @fprintf(ptr noundef %79, ptr noundef @.str.176, ptr noundef %82) #12
  br label %84

84:                                               ; preds = %78, %75
  store i32 1, ptr %9, align 4
  br label %145

85:                                               ; preds = %72
  br label %86

86:                                               ; preds = %85, %59
  %87 = load i32, ptr %3, align 4
  %88 = icmp eq i32 %87, 2
  br i1 %88, label %89, label %99

89:                                               ; preds = %86
  %90 = load i32, ptr %5, align 4
  %91 = call i32 @slurm_set_debug_level(i32 noundef %90)
  %92 = icmp ne i32 %91, 0
  br i1 %92, label %93, label %98

93:                                               ; preds = %89
  store i32 1, ptr @exit_code, align 4
  %94 = load i32, ptr @quiet_flag, align 4
  %95 = icmp ne i32 %94, 1
  br i1 %95, label %96, label %97

96:                                               ; preds = %93
  call void @slurm_perror(ptr noundef @.str.177)
  br label %97

97:                                               ; preds = %96, %93
  br label %98

98:                                               ; preds = %97, %89
  br label %144

99:                                               ; preds = %86
  %100 = load i32, ptr %3, align 4
  %101 = icmp eq i32 %100, 3
  br i1 %101, label %102, label %143

102:                                              ; preds = %99
  call void @llvm.lifetime.start.p0(i64 8, ptr %10) #12
  %103 = load ptr, ptr %4, align 8
  %104 = getelementptr inbounds ptr, ptr %103, i64 2
  %105 = load ptr, ptr %104, align 8
  %106 = call i32 @xstrncasecmp(ptr noundef %105, ptr noundef @.str.178, i64 noundef 6)
  %107 = icmp ne i32 %106, 0
  br i1 %107, label %108, label %118

108:                                              ; preds = %102
  store i32 1, ptr @exit_code, align 4
  %109 = load i32, ptr @quiet_flag, align 4
  %110 = icmp ne i32 %109, 1
  br i1 %110, label %111, label %117

111:                                              ; preds = %108
  %112 = load ptr, ptr @stderr, align 8
  %113 = load ptr, ptr %4, align 8
  %114 = getelementptr inbounds ptr, ptr %113, i64 1
  %115 = load ptr, ptr %114, align 8
  %116 = call i32 (ptr, ptr, ...) @fprintf(ptr noundef %112, ptr noundef @.str.179, ptr noundef %115) #12
  br label %117

117:                                              ; preds = %111, %108
  store i32 1, ptr %9, align 4
  br label %140

118:                                              ; preds = %102
  %119 = load ptr, ptr %4, align 8
  %120 = getelementptr inbounds ptr, ptr %119, i64 2
  %121 = load ptr, ptr %120, align 8
  %122 = call ptr @strchr(ptr noundef %121, i32 noundef 61) #15
  store ptr %122, ptr %10, align 8
  %123 = icmp ne ptr %122, null
  br i1 %123, label %124, label %127

124:                                              ; preds = %118
  %125 = load ptr, ptr %10, align 8
  %126 = getelementptr inbounds nuw i8, ptr %125, i32 1
  store ptr %126, ptr %10, align 8
  br label %127

127:                                              ; preds = %124, %118
  %128 = load ptr, ptr %10, align 8
  %129 = load i32, ptr %5, align 4
  %130 = call i32 @slurm_set_slurmd_debug_level(ptr noundef %128, i32 noundef %129)
  %131 = icmp ne i32 %130, 0
  br i1 %131, label %132, label %139

132:                                              ; preds = %127
  store i32 1, ptr @exit_code, align 4
  %133 = load i32, ptr @quiet_flag, align 4
  %134 = icmp ne i32 %133, 1
  br i1 %134, label %135, label %138

135:                                              ; preds = %132
  %136 = load ptr, ptr @stderr, align 8
  %137 = call i32 (ptr, ptr, ...) @fprintf(ptr noundef %136, ptr noundef @.str.180) #12
  br label %138

138:                                              ; preds = %135, %132
  br label %139

139:                                              ; preds = %138, %127
  store i32 0, ptr %9, align 4
  br label %140

140:                                              ; preds = %139, %117
  call void @llvm.lifetime.end.p0(i64 8, ptr %10) #12
  %141 = load i32, ptr %9, align 4
  switch i32 %141, label %145 [
    i32 0, label %142
  ]

142:                                              ; preds = %140
  br label %143

143:                                              ; preds = %142, %99
  br label %144

144:                                              ; preds = %143, %98
  store i32 0, ptr %9, align 4
  br label %145

145:                                              ; preds = %144, %140, %84, %35, %22
  call void @llvm.lifetime.end.p0(i64 88, ptr %8) #12
  call void @llvm.lifetime.end.p0(i64 8, ptr %7) #12
  call void @llvm.lifetime.end.p0(i64 4, ptr %6) #12
  call void @llvm.lifetime.end.p0(i64 4, ptr %5) #12
  %146 = load i32, ptr %9, align 4
  switch i32 %146, label %148 [
    i32 0, label %147
    i32 1, label %147
  ]

147:                                              ; preds = %145, %145
  ret void

148:                                              ; preds = %145
  unreachable
}