; Function Attrs: nounwind uwtable
define internal fastcc void @_setdebug(i32 noundef range(i32 1, -2147483648) %0, ptr noundef readonly captures(none) %1) unnamed_addr #8 {
  %3 = alloca ptr, align 8
  call void @llvm.lifetime.start.p0(i64 8, ptr nonnull %3) #18
  %4 = icmp samesign ugt i32 %0, 3
  br i1 %4, label %5, label %11

5:                                                ; preds = %2
  store i32 1, ptr @exit_code, align 4
  %6 = load i32, ptr @quiet_flag, align 4
  %.not41 = icmp eq i32 %6, 1
  br i1 %.not41, label %66, label %7

7:                                                ; preds = %5
  %8 = load ptr, ptr @stderr, align 8
  %9 = load ptr, ptr %1, align 8
  %10 = tail call i32 (ptr, ptr, ...) @fprintf(ptr noundef %8, ptr noundef nonnull @.str.52, ptr noundef %9) #22
  br label %66

11:                                               ; preds = %2
  %12 = icmp samesign ult i32 %0, 2
  br i1 %12, label %14, label %.preheader

.preheader:                                       ; preds = %11
  %13 = getelementptr inbounds nuw i8, ptr %1, i64 8
  br label %20

14:                                               ; preds = %11
  store i32 1, ptr @exit_code, align 4
  %15 = load i32, ptr @quiet_flag, align 4
  %.not40 = icmp eq i32 %15, 1
  br i1 %.not40, label %66, label %16

16:                                               ; preds = %14
  %17 = load ptr, ptr @stderr, align 8
  %18 = load ptr, ptr %1, align 8
  %19 = tail call i32 (ptr, ptr, ...) @fprintf(ptr noundef %17, ptr noundef nonnull @.str.60, ptr noundef %18) #22
  br label %66

20:                                               ; preds = %.preheader, %25
  %indvars.iv = phi i64 [ 0, %.preheader ], [ %indvars.iv.next, %25 ]
  %21 = getelementptr inbounds nuw [11 x ptr], ptr @__const._setdebug.levels, i64 0, i64 %indvars.iv
  %22 = load ptr, ptr %21, align 8
  %23 = load ptr, ptr %13, align 8
  %24 = tail call i32 @xstrcasecmp(ptr noundef %23, ptr noundef %22) #18
  %.not31 = icmp eq i32 %24, 0
  br i1 %.not31, label %.loopexit.loopexit, label %25

25:                                               ; preds = %20
  %indvars.iv.next = add nuw nsw i64 %indvars.iv, 1
  %.not = icmp eq i64 %indvars.iv.next, 10
  br i1 %.not, label %26, label %20, !llvm.loop !29

26:                                               ; preds = %25
  %27 = load ptr, ptr %13, align 8
  %28 = call i64 @strtoul(ptr noundef %27, ptr noundef nonnull %3, i32 noundef 10) #18
  %29 = trunc i64 %28 to i32
  %30 = load ptr, ptr %3, align 8
  %31 = load i8, ptr %30, align 1
  %32 = icmp ne i8 %31, 0
  %33 = icmp sgt i32 %29, 9
  %or.cond = select i1 %32, i1 true, i1 %33
  br i1 %or.cond, label %34, label %.loopexit

34:                                               ; preds = %26
  store i32 1, ptr @exit_code, align 4
  %35 = load i32, ptr @quiet_flag, align 4
  %.not39 = icmp eq i32 %35, 1
  br i1 %.not39, label %66, label %36

36:                                               ; preds = %34
  %37 = load ptr, ptr @stderr, align 8
  %38 = load ptr, ptr %13, align 8
  %39 = tail call i32 (ptr, ptr, ...) @fprintf(ptr noundef %37, ptr noundef nonnull @.str.176, ptr noundef %38) #22
  br label %66

.loopexit.loopexit:                               ; preds = %20
  %40 = trunc nuw nsw i64 %indvars.iv to i32
  br label %.loopexit

.loopexit:                                        ; preds = %.loopexit.loopexit, %26
  %.1 = phi i32 [ %29, %26 ], [ %40, %.loopexit.loopexit ]
  switch i32 %0, label %66 [
    i32 2, label %41
    i32 3, label %46
  ]

41:                                               ; preds = %.loopexit
  %42 = tail call i32 @slurm_set_debug_level(i32 noundef %.1) #18
  %.not37 = icmp eq i32 %42, 0
  br i1 %.not37, label %66, label %43

43:                                               ; preds = %41
  store i32 1, ptr @exit_code, align 4
  %44 = load i32, ptr @quiet_flag, align 4
  %.not38 = icmp eq i32 %44, 1
  br i1 %.not38, label %66, label %45

45:                                               ; preds = %43
  tail call void @slurm_perror(ptr noundef nonnull @.str.177) #18
  br label %66

46:                                               ; preds = %.loopexit
  %47 = getelementptr inbounds nuw i8, ptr %1, i64 16
  %48 = load ptr, ptr %47, align 8
  %49 = tail call i32 @xstrncasecmp(ptr noundef %48, ptr noundef nonnull @.str.178, i64 noundef 6) #18
  %.not32 = icmp eq i32 %49, 0
  br i1 %.not32, label %56, label %50

50:                                               ; preds = %46
  store i32 1, ptr @exit_code, align 4
  %51 = load i32, ptr @quiet_flag, align 4
  %.not36 = icmp eq i32 %51, 1
  br i1 %.not36, label %66, label %52

52:                                               ; preds = %50
  %53 = load ptr, ptr @stderr, align 8
  %54 = load ptr, ptr %13, align 8
  %55 = tail call i32 (ptr, ptr, ...) @fprintf(ptr noundef %53, ptr noundef nonnull @.str.179, ptr noundef %54) #22
  br label %66

56:                                               ; preds = %46
  %57 = load ptr, ptr %47, align 8
  %58 = tail call ptr @strchr(ptr noundef nonnull dereferenceable(1) %57, i32 noundef 61) #23
  %.not33 = icmp eq ptr %58, null
  %59 = getelementptr inbounds nuw i8, ptr %58, i64 1
  %spec.select = select i1 %.not33, ptr null, ptr %59
  %60 = tail call i32 @slurm_set_slurmd_debug_level(ptr noundef %spec.select, i32 noundef %.1) #18
  %.not34 = icmp eq i32 %60, 0
  br i1 %.not34, label %66, label %61

61:                                               ; preds = %56
  store i32 1, ptr @exit_code, align 4
  %62 = load i32, ptr @quiet_flag, align 4
  %.not35 = icmp eq i32 %62, 1
  br i1 %.not35, label %66, label %63

63:                                               ; preds = %61
  %64 = load ptr, ptr @stderr, align 8
  %65 = tail call i64 @fwrite(ptr nonnull @.str.180, i64 51, i64 1, ptr %64) #19
  br label %66

66:                                               ; preds = %52, %50, %61, %63, %56, %43, %45, %41, %.loopexit, %34, %36, %14, %16, %5, %7
  call void @llvm.lifetime.end.p0(i64 8, ptr nonnull %3) #18
  ret void
}